target datalayout = "e-m:e-p270:32:32-p271:32:32-p272:64:64-i64:64-i128:128-f80:128-n8:16:32:64-S128"
target triple = "x86_64-pc-linux-gnu"

%struct.expert_field = type { i32, i32 }

@hf_ansi_637_trans_bin_addr = internal global i32 0, align 4
@hf_ansi_637_trans_subaddr_type = internal global i32 0, align 4
@hf_ansi_637_trans_subaddr_odd_even_ind = internal global i32 0, align 4
@hf_ansi_637_trans_subaddr_num_fields = internal global i32 0, align 4
@.str.43 = private unnamed_addr constant [9 x i8] c"Reserved\00", align 1
@hf_ansi_637_reserved_bits_8_0f = internal global i32 0, align 4
@ei_ansi_637_short_data = internal global %struct.expert_field zeroinitializer, align 4
@.str.342 = private unnamed_addr constant [8 x i8] c"%s (%u)\00", align 1
@.str.425 = private unnamed_addr constant [11 x i8] c"Subaddress\00", align 1
@trans_param_subaddr_type_strings = internal constant [3 x { i32, [4 x i8], ptr }] [{ i32, [4 x i8], ptr } { i32 0, [4 x i8] zeroinitializer, ptr @.str.426 }, { i32, [4 x i8], ptr } { i32 1, [4 x i8] zeroinitializer, ptr @.str.427 }, { i32, [4 x i8], ptr } zeroinitializer], align 16

; Function Attrs: null_pointer_is_valid sspstrong uwtable
define internal void @trans_param_subaddress(ptr noundef %0, ptr noundef %1, ptr noundef %2, i32 noundef %3, i32 noundef %4, ptr noundef %5, i32 noundef %6) #0 {
  %8 = alloca ptr, align 8
  %9 = alloca ptr, align 8
  %10 = alloca ptr, align 8
  %11 = alloca i32, align 4
  %12 = alloca i32, align 4
  %13 = alloca ptr, align 8
  %14 = alloca i32, align 4
  %15 = alloca i8, align 1
  %16 = alloca i32, align 4
  %17 = alloca ptr, align 8
  %18 = alloca i32, align 4
  store ptr %0, ptr %8, align 8
  store ptr %1, ptr %9, align 8
  store ptr %2, ptr %10, align 8
  store i32 %3, ptr %11, align 4
  store i32 %4, ptr %12, align 4
  store ptr %5, ptr %13, align 8
  store i32 %6, ptr %14, align 4
  call void @llvm.lifetime.start.p0(i64 1, ptr %15) #7
  call void @llvm.lifetime.start.p0(i64 4, ptr %16) #7
  call void @llvm.lifetime.start.p0(i64 8, ptr %17) #7
  %19 = load i32, ptr %11, align 4
  %20 = icmp ult i32 %19, 2
  br i1 %20, label %21, label %28

21:                                               ; preds = %7
  %22 = load ptr, ptr %10, align 8
  %23 = load ptr, ptr %9, align 8
  %24 = load ptr, ptr %8, align 8
  %25 = load i32, ptr %12, align 4
  %26 = load i32, ptr %11, align 4
  %27 = call ptr @proto_tree_add_expert(ptr noundef %22, ptr noundef %23, ptr noundef @ei_ansi_637_short_data, ptr noundef %24, i32 noundef %25, i32 noundef %26)
  store i32 1, ptr %18, align 4
  br label %106

28:                                               ; preds = %7
  %29 = load ptr, ptr %8, align 8
  %30 = load i32, ptr %12, align 4
  %31 = call zeroext i16 @tvb_get_ntohs(ptr noundef %29, i32 noundef %30)
  %32 = zext i16 %31 to i32
  store i32 %32, ptr %16, align 4
  %33 = load ptr, ptr %10, align 8
  %34 = load i32, ptr @hf_ansi_637_trans_subaddr_type, align 4
  %35 = load ptr, ptr %8, align 8
  %36 = load i32, ptr %12, align 4
  %37 = load i32, ptr %16, align 4
  %38 = load i32, ptr %16, align 4
  %39 = and i32 %38, 57344
  %40 = lshr i32 %39, 13
  %41 = call ptr @val_to_str_const(i32 noundef %40, ptr noundef @trans_param_subaddr_type_strings, ptr noundef @.str.43)
  %42 = load i32, ptr %16, align 4
  %43 = and i32 %42, 57344
  %44 = lshr i32 %43, 13
  %45 = call ptr (ptr, i32, ptr, i32, i32, i32, ptr, ...) @proto_tree_add_uint_format_value(ptr noundef %33, i32 noundef %34, ptr noundef %35, i32 noundef %36, i32 noundef 2, i32 noundef %37, ptr noundef @.str.342, ptr noundef %41, i32 noundef %44)
  %46 = load ptr, ptr %10, align 8
  %47 = load i32, ptr @hf_ansi_637_trans_subaddr_odd_even_ind, align 4
  %48 = load ptr, ptr %8, align 8
  %49 = load i32, ptr %12, align 4
  %50 = call ptr @proto_tree_add_item(ptr noundef %46, i32 noundef %47, ptr noundef %48, i32 noundef %49, i32 noundef 2, i32 noundef 0)
  %51 = load ptr, ptr %10, align 8
  %52 = load i32, ptr @hf_ansi_637_trans_subaddr_num_fields, align 4
  %53 = load ptr, ptr %8, align 8
  %54 = load i32, ptr %12, align 4
  %55 = call ptr @proto_tree_add_item(ptr noundef %51, i32 noundef %52, ptr noundef %53, i32 noundef %54, i32 noundef 2, i32 noundef 0)
  %56 = load i32, ptr %16, align 4
  %57 = and i32 %56, 4080
  %58 = lshr i32 %57, 4
  %59 = trunc i32 %58 to i8
  store i8 %59, ptr %15, align 1
  %60 = load i8, ptr %15, align 1
  %61 = zext i8 %60 to i32
  %62 = icmp eq i32 %61, 0
  br i1 %62, label %63, label %64

63:                                               ; preds = %28
  store i32 1, ptr %18, align 4
  br label %106

64:                                               ; preds = %28
  %65 = load i32, ptr %11, align 4
  %66 = sub i32 %65, 2
  %67 = load i8, ptr %15, align 1
  %68 = zext i8 %67 to i32
  %69 = icmp ult i32 %66, %68
  br i1 %69, label %70, label %78

70:                                               ; preds = %64
  %71 = load ptr, ptr %10, align 8
  %72 = load ptr, ptr %9, align 8
  %73 = load ptr, ptr %8, align 8
  %74 = load i32, ptr %12, align 4
  %75 = load i32, ptr %11, align 4
  %76 = sub i32 %75, 2
  %77 = call ptr @proto_tree_add_expert(ptr noundef %71, ptr noundef %72, ptr noundef @ei_ansi_637_short_data, ptr noundef %73, i32 noundef %74, i32 noundef %76)
  store i32 1, ptr %18, align 4
  br label %106

78:                                               ; preds = %64
  %79 = load i32, ptr %12, align 4
  %80 = add i32 %79, 1
  store i32 %80, ptr %12, align 4
  %81 = load ptr, ptr %8, align 8
  %82 = load i32, ptr %12, align 4
  %83 = mul i32 %82, 8
  %84 = add i32 %83, 4
  %85 = load i8, ptr %15, align 1
  %86 = zext i8 %85 to i32
  %87 = mul i32 %86, 8
  %88 = call ptr @tvb_new_octet_aligned(ptr noundef %81, i32 noundef %84, i32 noundef %87)
  store ptr %88, ptr %17, align 8
  %89 = load ptr, ptr %9, align 8
  %90 = load ptr, ptr %17, align 8
  call void @add_new_data_source(ptr noundef %89, ptr noundef %90, ptr noundef @.str.425)
  %91 = load ptr, ptr %10, align 8
  %92 = load i32, ptr @hf_ansi_637_trans_bin_addr, align 4
  %93 = load ptr, ptr %17, align 8
  %94 = load i8, ptr %15, align 1
  %95 = zext i8 %94 to i32
  %96 = call ptr @proto_tree_add_item(ptr noundef %91, i32 noundef %92, ptr noundef %93, i32 noundef 0, i32 noundef %95, i32 noundef 0)
  %97 = load i8, ptr %15, align 1
  %98 = zext i8 %97 to i32
  %99 = load i32, ptr %12, align 4
  %100 = add i32 %99, %98
  store i32 %100, ptr %12, align 4
  %101 = load ptr, ptr %10, align 8
  %102 = load i32, ptr @hf_ansi_637_reserved_bits_8_0f, align 4
  %103 = load ptr, ptr %8, align 8
  %104 = load i32, ptr %12, align 4
  %105 = call ptr @proto_tree_add_item(ptr noundef %101, i32 noundef %102, ptr noundef %103, i32 noundef %104, i32 noundef 1, i32 noundef 0)
  store i32 0, ptr %18, align 4
  br label %106

106:                                              ; preds = %78, %70, %63, %21
  call void @llvm.lifetime.end.p0(i64 8, ptr %17) #7
  call void @llvm.lifetime.end.p0(i64 4, ptr %16) #7
  call void @llvm.lifetime.end.p0(i64 1, ptr %15) #7
  %107 = load i32, ptr %18, align 4
  switch i32 %107, label %109 [
    i32 0, label %108
    i32 1, label %108
  ]

108:                                              ; preds = %106, %106
  ret void

109:                                              ; preds = %106
  unreachable
}