; Function Attrs: null_pointer_is_valid sspstrong uwtable
define internal void @trans_param_subaddress(ptr noundef %0, ptr noundef %1, ptr noundef %2, i32 noundef %3, i32 noundef %4, ptr readnone captures(none) %5, i32 %6) #0 {
  %8 = icmp ult i32 %3, 2
  br i1 %8, label %9, label %11

9:                                                ; preds = %7
  %10 = tail call ptr @proto_tree_add_expert(ptr noundef %2, ptr noundef %1, ptr noundef nonnull @ei_ansi_637_short_data, ptr noundef %0, i32 noundef %4, i32 noundef %3)
  br label %42

11:                                               ; preds = %7
  %12 = tail call zeroext i16 @tvb_get_ntohs(ptr noundef %0, i32 noundef %4)
  %13 = zext i16 %12 to i32
  %14 = load i32, ptr @hf_ansi_637_trans_subaddr_type, align 4
  %15 = lshr i32 %13, 13
  %16 = tail call ptr @val_to_str_const(i32 noundef %15, ptr noundef nonnull @trans_param_subaddr_type_strings, ptr noundef nonnull @.str.43)
  %17 = tail call ptr (ptr, i32, ptr, i32, i32, i32, ptr, ...) @proto_tree_add_uint_format_value(ptr noundef %2, i32 noundef %14, ptr noundef %0, i32 noundef %4, i32 noundef 2, i32 noundef %13, ptr noundef nonnull @.str.342, ptr noundef %16, i32 noundef %15)
  %18 = load i32, ptr @hf_ansi_637_trans_subaddr_odd_even_ind, align 4
  %19 = tail call ptr @proto_tree_add_item(ptr noundef %2, i32 noundef %18, ptr noundef %0, i32 noundef %4, i32 noundef 2, i32 noundef 0)
  %20 = load i32, ptr @hf_ansi_637_trans_subaddr_num_fields, align 4
  %21 = tail call ptr @proto_tree_add_item(ptr noundef %2, i32 noundef %20, ptr noundef %0, i32 noundef %4, i32 noundef 2, i32 noundef 0)
  %22 = lshr i16 %12, 4
  %23 = and i16 %22, 255
  %24 = zext nneg i16 %23 to i32
  %25 = icmp eq i16 %23, 0
  br i1 %25, label %42, label %26

26:                                               ; preds = %11
  %27 = add i32 %3, -2
  %28 = icmp ult i32 %27, %24
  br i1 %28, label %29, label %31

29:                                               ; preds = %26
  %30 = tail call ptr @proto_tree_add_expert(ptr noundef %2, ptr noundef %1, ptr noundef nonnull @ei_ansi_637_short_data, ptr noundef %0, i32 noundef %4, i32 noundef %27)
  br label %42

31:                                               ; preds = %26
  %32 = add i32 %4, 1
  %33 = shl i32 %32, 3
  %34 = or disjoint i32 %33, 4
  %35 = shl nuw nsw i32 %24, 3
  %36 = tail call ptr @tvb_new_octet_aligned(ptr noundef %0, i32 noundef %34, i32 noundef %35)
  tail call void @add_new_data_source(ptr noundef %1, ptr noundef %36, ptr noundef nonnull @.str.425)
  %37 = load i32, ptr @hf_ansi_637_trans_bin_addr, align 4
  %38 = tail call ptr @proto_tree_add_item(ptr noundef %2, i32 noundef %37, ptr noundef %36, i32 noundef 0, i32 noundef %24, i32 noundef 0)
  %39 = add i32 %32, %24
  %40 = load i32, ptr @hf_ansi_637_reserved_bits_8_0f, align 4
  %41 = tail call ptr @proto_tree_add_item(ptr noundef %2, i32 noundef %40, ptr noundef %0, i32 noundef %39, i32 noundef 1, i32 noundef 0)
  br label %42

42:                                               ; preds = %11, %31, %29, %9
  ret void
}